target datalayout = "e-m:e-p270:32:32-p271:32:32-p272:64:64-i64:64-i128:128-f80:128-n8:16:32:64-S128"
target triple = "x86_64-pc-linux-gnu"

%struct.H5F_t = type { ptr, ptr, ptr, ptr, i32, ptr, i8, i8, ptr, i32 }
%struct.H5F_shared_t = type { ptr, ptr, ptr, i8, i32, i32, %struct.H5F_mtab_t, ptr, i8, i8, i64, i32, i32, i64, i64, ptr, ptr, %struct.H5AC_cache_config_t, %struct.H5AC_cache_image_config_t, i8, i8, ptr, i64, i32, i8, i64, i64, double, i64, i64, i64, i32, i32, i32, i8, i32, ptr, ptr, ptr, ptr, i8, i8, i8, i64, i64, ptr, ptr, i32, i64, i8, i32, i8, i64, i8, [13 x i32], [13 x i64], [13 x ptr], i8, i64, i64, [7 x i32], [7 x i32], %struct.H5F_blk_aggr_t, %struct.H5F_blk_aggr_t, i64, i64, %struct.H5F_meta_accum_t, i32, i32, [30 x ptr], %struct.H5F_object_flush_t, i8, ptr }
%struct.H5F_mtab_t = type { i32, i32, ptr }
%struct.H5AC_cache_config_t = type { i32, i8, i8, i8, [1025 x i8], i8, i8, i64, double, i64, i64, i64, i32, double, double, i8, i64, i32, double, double, i32, double, double, i8, i64, i32, i8, double, i64, i32 }
%struct.H5AC_cache_image_config_t = type { i32, i8, i8, i32 }
%struct.H5F_blk_aggr_t = type { i64, i64, i64, i64, i64 }
%struct.H5F_meta_accum_t = type { ptr, i64, i64, i64, i64, i64, i8 }
%struct.H5F_object_flush_t = type { ptr, ptr }

; Function Attrs: nounwind uwtable
define i32 @H5MF__aggr_query(ptr noundef %0, ptr noundef %1, ptr noundef %2, ptr noundef %3) #0 {
  %5 = alloca ptr, align 8
  %6 = alloca ptr, align 8
  %7 = alloca ptr, align 8
  %8 = alloca ptr, align 8
  store ptr %0, ptr %5, align 8
  store ptr %1, ptr %6, align 8
  store ptr %2, ptr %7, align 8
  store ptr %3, ptr %8, align 8
  %9 = load ptr, ptr %5, align 8
  %10 = getelementptr inbounds %struct.H5F_t, ptr %9, i32 0, i32 2
  %11 = load ptr, ptr %10, align 8
  %12 = getelementptr inbounds %struct.H5F_shared_t, ptr %11, i32 0, i32 13
  %13 = load i64, ptr %12, align 8
  %14 = load ptr, ptr %6, align 8
  %15 = getelementptr inbounds %struct.H5F_blk_aggr_t, ptr %14, i32 0, i32 0
  %16 = load i64, ptr %15, align 8
  %17 = and i64 %13, %16
  %18 = icmp ne i64 %17, 0
  br i1 %18, label %19, label %36

19:                                               ; preds = %4
  %20 = load ptr, ptr %7, align 8
  %21 = icmp ne ptr %20, null
  br i1 %21, label %22, label %27

22:                                               ; preds = %19
  %23 = load ptr, ptr %6, align 8
  %24 = getelementptr inbounds %struct.H5F_blk_aggr_t, ptr %23, i32 0, i32 4
  %25 = load i64, ptr %24, align 8
  %26 = load ptr, ptr %7, align 8
  store i64 %25, ptr %26, align 8
  br label %27

27:                                               ; preds = %22, %19
  %28 = load ptr, ptr %8, align 8
  %29 = icmp ne ptr %28, null
  br i1 %29, label %30, label %35

30:                                               ; preds = %27
  %31 = load ptr, ptr %6, align 8
  %32 = getelementptr inbounds %struct.H5F_blk_aggr_t, ptr %31, i32 0, i32 3
  %33 = load i64, ptr %32, align 8
  %34 = load ptr, ptr %8, align 8
  store i64 %33, ptr %34, align 8
  br label %35

35:                                               ; preds = %30, %27
  br label %36

36:                                               ; preds = %35, %4
  ret i32 0
}