; Function Attrs: mustprogress nofree norecurse nosync nounwind willreturn memory(read, argmem: readwrite, inaccessiblemem: none) uwtable
define noundef i32 @H5MF__aggr_query(ptr nocapture noundef readonly %0, ptr nocapture noundef readonly %1, ptr noundef writeonly %2, ptr noundef writeonly %3) local_unnamed_addr #2 {
  %5 = getelementptr inbounds i8, ptr %0, i64 16
  %6 = load ptr, ptr %5, align 8
  %7 = getelementptr inbounds i8, ptr %6, i64 88
  %8 = load i64, ptr %7, align 8
  %9 = load i64, ptr %1, align 8
  %10 = and i64 %9, %8
  %.not = icmp eq i64 %10, 0
  br i1 %.not, label %19, label %11

11:                                               ; preds = %4
  %.not9 = icmp eq ptr %2, null
  br i1 %.not9, label %15, label %12

12:                                               ; preds = %11
  %13 = getelementptr inbounds i8, ptr %1, i64 32
  %14 = load i64, ptr %13, align 8
  store i64 %14, ptr %2, align 8
  br label %15

15:                                               ; preds = %12, %11
  %.not10 = icmp eq ptr %3, null
  br i1 %.not10, label %19, label %16

16:                                               ; preds = %15
  %17 = getelementptr inbounds i8, ptr %1, i64 24
  %18 = load i64, ptr %17, align 8
  store i64 %18, ptr %3, align 8
  br label %19

19:                                               ; preds = %15, %16, %4
  ret i32 0
}